; Function Attrs: mustprogress uwtable
define hidden noalias noundef ptr @_ZN7datalog20karr_relation_plugin11mk_union_fnERKNS_13relation_baseES3_PS2_(ptr noundef nonnull readnone align 8 dereferenceable(184) %this, ptr nocapture noundef nonnull readonly align 8 dereferenceable(28) %tgt, ptr nocapture noundef nonnull readonly align 8 dereferenceable(28) %src, ptr noundef readonly %delta) unnamed_addr #3 align 2 {
entry:
  %m_plugin.i.i = getelementptr inbounds i8, ptr %tgt, i64 8
  %0 = load ptr, ptr %m_plugin.i.i, align 8
  %cmp.i = icmp eq ptr %0, %this
  %m_plugin.i.i2 = getelementptr inbounds i8, ptr %src, i64 8
  %1 = load ptr, ptr %m_plugin.i.i2, align 8
  %cmp.i3 = icmp eq ptr %1, %this
  %or.cond = select i1 %cmp.i, i1 %cmp.i3, i1 false
  br i1 %or.cond, label %lor.lhs.false3, label %return

lor.lhs.false3:                                   ; preds = %entry
  %tobool.not = icmp eq ptr %delta, null
  br i1 %tobool.not, label %if.end, label %land.lhs.true

land.lhs.true:                                    ; preds = %lor.lhs.false3
  %m_plugin.i.i4 = getelementptr inbounds i8, ptr %delta, i64 8
  %2 = load ptr, ptr %m_plugin.i.i4, align 8
  %cmp.i5 = icmp eq ptr %2, %this
  br i1 %cmp.i5, label %if.end, label %return

if.end:                                           ; preds = %land.lhs.true, %lor.lhs.false3
  %call5 = tail call noalias noundef ptr @_ZN6memory8allocateEm(i64 noundef 8)
  store ptr getelementptr inbounds ({ [5 x ptr] }, ptr @_ZTVN7datalog20karr_relation_plugin8union_fnE, i64 0, i32 0, i64 2), ptr %call5, align 8
  br label %return

return:                                           ; preds = %entry, %land.lhs.true, %if.end
  %retval.0 = phi ptr [ %call5, %if.end ], [ null, %land.lhs.true ], [ null, %entry ]
  ret ptr %retval.0
}